; ModuleID = '14/903.c'
source_filename = "14/903.c"
target datalayout = "e-m:e-p270:32:32-p271:32:32-p272:64:64-i64:64-f80:128-n8:16:32:64-S128"
target triple = "x86_64-pc-linux-gnu"

%struct.student = type { i32, i32, i32 }

@.str = private unnamed_addr constant [3 x i8] c"%d\00", align 1
@.str.1 = private unnamed_addr constant [9 x i8] c"%d %d %d\00", align 1
@stu = common dso_local global [100000 x %struct.student] zeroinitializer, align 16
@.str.2 = private unnamed_addr constant [7 x i8] c"%d %d\0A\00", align 1

; Function Attrs: noinline nounwind uwtable
define dso_local i32 @main() #0 {
  %1 = alloca i32, align 4
  %2 = alloca i32, align 4
  %3 = alloca [100000 x i32], align 16
  %4 = alloca [3 x i32], align 4
  %5 = alloca i32, align 4
  %6 = alloca i32, align 4
  %7 = alloca i32, align 4
  %8 = alloca i32, align 4
  %9 = alloca i32, align 4
  %10 = alloca i32, align 4
  store i32 0, i32* %1, align 4
  %11 = call i32 (i8*, ...) @__isoc99_scanf(i8* getelementptr inbounds ([3 x i8], [3 x i8]* @.str, i64 0, i64 0), i32* %2)
  store i32 0, i32* %5, align 4
  br label %12

12:                                               ; preds = %30, %0
  %13 = load i32, i32* %5, align 4
  %14 = load i32, i32* %2, align 4
  %15 = icmp slt i32 %13, %14
  br i1 %15, label %16, label %33

16:                                               ; preds = %12
  %17 = load i32, i32* %5, align 4
  %18 = sext i32 %17 to i64
  %19 = getelementptr inbounds [100000 x %struct.student], [100000 x %struct.student]* @stu, i64 0, i64 %18
  %20 = getelementptr inbounds %struct.student, %struct.student* %19, i32 0, i32 0
  %21 = load i32, i32* %5, align 4
  %22 = sext i32 %21 to i64
  %23 = getelementptr inbounds [100000 x %struct.student], [100000 x %struct.student]* @stu, i64 0, i64 %22
  %24 = getelementptr inbounds %struct.student, %struct.student* %23, i32 0, i32 1
  %25 = load i32, i32* %5, align 4
  %26 = sext i32 %25 to i64
  %27 = getelementptr inbounds [100000 x %struct.student], [100000 x %struct.student]* @stu, i64 0, i64 %26
  %28 = getelementptr inbounds %struct.student, %struct.student* %27, i32 0, i32 2
  %29 = call i32 (i8*, ...) @__isoc99_scanf(i8* getelementptr inbounds ([9 x i8], [9 x i8]* @.str.1, i64 0, i64 0), i32* %20, i32* %24, i32* %28)
  br label %30

30:                                               ; preds = %16
  %31 = load i32, i32* %5, align 4
  %32 = add nsw i32 %31, 1
  store i32 %32, i32* %5, align 4
  br label %12

33:                                               ; preds = %12
  store i32 0, i32* %5, align 4
  br label %34

34:                                               ; preds = %53, %33
  %35 = load i32, i32* %5, align 4
  %36 = load i32, i32* %2, align 4
  %37 = icmp slt i32 %35, %36
  br i1 %37, label %38, label %56

38:                                               ; preds = %34
  %39 = load i32, i32* %5, align 4
  %40 = sext i32 %39 to i64
  %41 = getelementptr inbounds [100000 x %struct.student], [100000 x %struct.student]* @stu, i64 0, i64 %40
  %42 = getelementptr inbounds %struct.student, %struct.student* %41, i32 0, i32 1
  %43 = load i32, i32* %42, align 4
  %44 = load i32, i32* %5, align 4
  %45 = sext i32 %44 to i64
  %46 = getelementptr inbounds [100000 x %struct.student], [100000 x %struct.student]* @stu, i64 0, i64 %45
  %47 = getelementptr inbounds %struct.student, %struct.student* %46, i32 0, i32 2
  %48 = load i32, i32* %47, align 4
  %49 = add nsw i32 %43, %48
  %50 = load i32, i32* %5, align 4
  %51 = sext i32 %50 to i64
  %52 = getelementptr inbounds [100000 x i32], [100000 x i32]* %3, i64 0, i64 %51
  store i32 %49, i32* %52, align 4
  br label %53

53:                                               ; preds = %38
  %54 = load i32, i32* %5, align 4
  %55 = add nsw i32 %54, 1
  store i32 %55, i32* %5, align 4
  br label %34

56:                                               ; preds = %34
  %57 = getelementptr inbounds [3 x i32], [3 x i32]* %4, i64 0, i64 0
  store i32 0, i32* %57, align 4
  store i32 0, i32* %6, align 4
  store i32 0, i32* %7, align 4
  br label %58

58:                                               ; preds = %78, %56
  %59 = load i32, i32* %6, align 4
  %60 = load i32, i32* %2, align 4
  %61 = icmp slt i32 %59, %60
  br i1 %61, label %62, label %81

62:                                               ; preds = %58
  %63 = load i32, i32* %6, align 4
  %64 = sext i32 %63 to i64
  %65 = getelementptr inbounds [100000 x i32], [100000 x i32]* %3, i64 0, i64 %64
  %66 = load i32, i32* %65, align 4
  %67 = getelementptr inbounds [3 x i32], [3 x i32]* %4, i64 0, i64 0
  %68 = load i32, i32* %67, align 4
  %69 = icmp sgt i32 %66, %68
  br i1 %69, label %70, label %77

70:                                               ; preds = %62
  %71 = load i32, i32* %6, align 4
  %72 = sext i32 %71 to i64
  %73 = getelementptr inbounds [100000 x i32], [100000 x i32]* %3, i64 0, i64 %72
  %74 = load i32, i32* %73, align 4
  %75 = getelementptr inbounds [3 x i32], [3 x i32]* %4, i64 0, i64 0
  store i32 %74, i32* %75, align 4
  %76 = load i32, i32* %6, align 4
  store i32 %76, i32* %7, align 4
  br label %77

77:                                               ; preds = %70, %62
  br label %78

78:                                               ; preds = %77
  %79 = load i32, i32* %6, align 4
  %80 = add nsw i32 %79, 1
  store i32 %80, i32* %6, align 4
  br label %58

81:                                               ; preds = %58
  %82 = getelementptr inbounds [3 x i32], [3 x i32]* %4, i64 0, i64 1
  store i32 0, i32* %82, align 4
  store i32 1, i32* %6, align 4
  store i32 0, i32* %8, align 4
  br label %83

83:                                               ; preds = %107, %81
  %84 = load i32, i32* %6, align 4
  %85 = load i32, i32* %2, align 4
  %86 = icmp slt i32 %84, %85
  br i1 %86, label %87, label %110

87:                                               ; preds = %83
  %88 = load i32, i32* %6, align 4
  %89 = sext i32 %88 to i64
  %90 = getelementptr inbounds [100000 x i32], [100000 x i32]* %3, i64 0, i64 %89
  %91 = load i32, i32* %90, align 4
  %92 = getelementptr inbounds [3 x i32], [3 x i32]* %4, i64 0, i64 1
  %93 = load i32, i32* %92, align 4
  %94 = icmp sgt i32 %91, %93
  br i1 %94, label %95, label %106

95:                                               ; preds = %87
  %96 = load i32, i32* %6, align 4
  %97 = load i32, i32* %7, align 4
  %98 = icmp ne i32 %96, %97
  br i1 %98, label %99, label %106

99:                                               ; preds = %95
  %100 = load i32, i32* %6, align 4
  %101 = sext i32 %100 to i64
  %102 = getelementptr inbounds [100000 x i32], [100000 x i32]* %3, i64 0, i64 %101
  %103 = load i32, i32* %102, align 4
  %104 = getelementptr inbounds [3 x i32], [3 x i32]* %4, i64 0, i64 1
  store i32 %103, i32* %104, align 4
  %105 = load i32, i32* %6, align 4
  store i32 %105, i32* %8, align 4
  br label %106

106:                                              ; preds = %99, %95, %87
  br label %107

107:                                              ; preds = %106
  %108 = load i32, i32* %6, align 4
  %109 = add nsw i32 %108, 1
  store i32 %109, i32* %6, align 4
  br label %83

110:                                              ; preds = %83
  %111 = getelementptr inbounds [3 x i32], [3 x i32]* %4, i64 0, i64 2
  store i32 0, i32* %111, align 4
  store i32 1, i32* %6, align 4
  store i32 0, i32* %9, align 4
  br label %112

112:                                              ; preds = %140, %110
  %113 = load i32, i32* %6, align 4
  %114 = load i32, i32* %2, align 4
  %115 = icmp slt i32 %113, %114
  br i1 %115, label %116, label %143

116:                                              ; preds = %112
  %117 = load i32, i32* %6, align 4
  %118 = sext i32 %117 to i64
  %119 = getelementptr inbounds [100000 x i32], [100000 x i32]* %3, i64 0, i64 %118
  %120 = load i32, i32* %119, align 4
  %121 = getelementptr inbounds [3 x i32], [3 x i32]* %4, i64 0, i64 2
  %122 = load i32, i32* %121, align 4
  %123 = icmp sgt i32 %120, %122
  br i1 %123, label %124, label %139

124:                                              ; preds = %116
  %125 = load i32, i32* %6, align 4
  %126 = load i32, i32* %7, align 4
  %127 = icmp ne i32 %125, %126
  br i1 %127, label %128, label %139

128:                                              ; preds = %124
  %129 = load i32, i32* %6, align 4
  %130 = load i32, i32* %8, align 4
  %131 = icmp ne i32 %129, %130
  br i1 %131, label %132, label %139

132:                                              ; preds = %128
  %133 = load i32, i32* %6, align 4
  %134 = sext i32 %133 to i64
  %135 = getelementptr inbounds [100000 x i32], [100000 x i32]* %3, i64 0, i64 %134
  %136 = load i32, i32* %135, align 4
  %137 = getelementptr inbounds [3 x i32], [3 x i32]* %4, i64 0, i64 2
  store i32 %136, i32* %137, align 4
  %138 = load i32, i32* %6, align 4
  store i32 %138, i32* %9, align 4
  br label %139

139:                                              ; preds = %132, %128, %124, %116
  br label %140

140:                                              ; preds = %139
  %141 = load i32, i32* %6, align 4
  %142 = add nsw i32 %141, 1
  store i32 %142, i32* %6, align 4
  br label %112

143:                                              ; preds = %112
  %144 = load i32, i32* %7, align 4
  %145 = sext i32 %144 to i64
  %146 = getelementptr inbounds [100000 x %struct.student], [100000 x %struct.student]* @stu, i64 0, i64 %145
  %147 = getelementptr inbounds %struct.student, %struct.student* %146, i32 0, i32 0
  %148 = load i32, i32* %147, align 4
  %149 = load i32, i32* %7, align 4
  %150 = sext i32 %149 to i64
  %151 = getelementptr inbounds [100000 x i32], [100000 x i32]* %3, i64 0, i64 %150
  %152 = load i32, i32* %151, align 4
  %153 = call i32 (i8*, ...) @printf(i8* getelementptr inbounds ([7 x i8], [7 x i8]* @.str.2, i64 0, i64 0), i32 %148, i32 %152)
  %154 = load i32, i32* %8, align 4
  %155 = sext i32 %154 to i64
  %156 = getelementptr inbounds [100000 x %struct.student], [100000 x %struct.student]* @stu, i64 0, i64 %155
  %157 = getelementptr inbounds %struct.student, %struct.student* %156, i32 0, i32 0
  %158 = load i32, i32* %157, align 4
  %159 = load i32, i32* %8, align 4
  %160 = sext i32 %159 to i64
  %161 = getelementptr inbounds [100000 x i32], [100000 x i32]* %3, i64 0, i64 %160
  %162 = load i32, i32* %161, align 4
  %163 = call i32 (i8*, ...) @printf(i8* getelementptr inbounds ([7 x i8], [7 x i8]* @.str.2, i64 0, i64 0), i32 %158, i32 %162)
  %164 = load i32, i32* %9, align 4
  %165 = sext i32 %164 to i64
  %166 = getelementptr inbounds [100000 x %struct.student], [100000 x %struct.student]* @stu, i64 0, i64 %165
  %167 = getelementptr inbounds %struct.student, %struct.student* %166, i32 0, i32 0
  %168 = load i32, i32* %167, align 4
  %169 = load i32, i32* %9, align 4
  %170 = sext i32 %169 to i64
  %171 = getelementptr inbounds [100000 x i32], [100000 x i32]* %3, i64 0, i64 %170
  %172 = load i32, i32* %171, align 4
  %173 = call i32 (i8*, ...) @printf(i8* getelementptr inbounds ([7 x i8], [7 x i8]* @.str.2, i64 0, i64 0), i32 %168, i32 %172)
  %174 = load i32, i32* %1, align 4
  ret i32 %174
}

declare dso_local i32 @__isoc99_scanf(i8*, ...) #1

declare dso_local i32 @printf(i8*, ...) #1


!llvm.module.flags = !{!0}
!llvm.ident = !{!1}

!0 = !{i32 1, !"wchar_size", i32 4}
!1 = !{!"clang version 10.0.0-4ubuntu1 "}
